target datalayout = "e-m:e-p270:32:32-p271:32:32-p272:64:64-i64:64-i128:128-f80:128-n8:16:32:64-S128"
target triple = "x86_64-pc-linux-gnu"

@stderr = external global ptr, align 8
@.str.11 = private unnamed_addr constant [1 x i8] zeroinitializer, align 1
@.str.21 = private unnamed_addr constant [2 x i8] c".\00", align 1
@_ZL12pkgDataFlags = internal global ptr null, align 8
@_ZL12libFileNames = internal global [4 x [256 x i8]] zeroinitializer, align 16
@.str.109 = private unnamed_addr constant [13 x i8] c"pkgdata: %s\0A\00", align 1
@.str.110 = private unnamed_addr constant [23 x i8] c"-- return status = %d\0A\00", align 1
@.str.113 = private unnamed_addr constant [7 x i8] c"%s%s%s\00", align 1
@.str.133 = private unnamed_addr constant [3 x i8] c"%s\00", align 1
@.str.145 = private unnamed_addr constant [6 x i8] c"rm -f\00", align 1
@.str.146 = private unnamed_addr constant [27 x i8] c"cd %s && %s %s && %s %s %s\00", align 1
@.str.147 = private unnamed_addr constant [6 x i8] c"ln -s\00", align 1
@.str.148 = private unnamed_addr constant [51 x i8] c"Error creating symbolic links. Failed command: %s\0A\00", align 1

; Function Attrs: mustprogress uwtable
define internal noundef i32 @_ZL10runCommandPKca(ptr noundef %0, i8 noundef signext %1) #1 {
  %3 = alloca i32, align 4
  %4 = alloca ptr, align 8
  %5 = alloca i8, align 1
  %6 = alloca ptr, align 8
  %7 = alloca [4096 x i8], align 16
  %8 = alloca i32, align 4
  %9 = alloca i32, align 4
  %10 = alloca i32, align 4
  store ptr %0, ptr %4, align 8, !tbaa !18
  store i8 %1, ptr %5, align 1, !tbaa !27
  call void @llvm.lifetime.start.p0(i64 8, ptr %6) #14
  store ptr null, ptr %6, align 8, !tbaa !18
  call void @llvm.lifetime.start.p0(i64 4096, ptr %7) #14
  call void @llvm.lifetime.start.p0(i64 4, ptr %8) #14
  %11 = load ptr, ptr %4, align 8, !tbaa !18
  %12 = call i64 @strlen(ptr noundef %11) #17
  %13 = trunc i64 %12 to i32
  store i32 %13, ptr %8, align 4, !tbaa !15
  %14 = load i32, ptr %8, align 4, !tbaa !15
  %15 = icmp eq i32 %14, 0
  br i1 %15, label %16, label %17

16:                                               ; preds = %2
  store i32 0, ptr %3, align 4
  store i32 1, ptr %9, align 4
  br label %47

17:                                               ; preds = %2
  %18 = load i8, ptr %5, align 1, !tbaa !27
  %19 = icmp ne i8 %18, 0
  br i1 %19, label %21, label %20

20:                                               ; preds = %17
  br label %22

21:                                               ; preds = %17
  br label %22

22:                                               ; preds = %21, %20
  %23 = load ptr, ptr %4, align 8, !tbaa !18
  store ptr %23, ptr %6, align 8, !tbaa !18
  br label %24

24:                                               ; preds = %22
  %25 = load ptr, ptr %6, align 8, !tbaa !18
  %26 = call i32 (ptr, ...) @printf(ptr noundef @.str.109, ptr noundef %25)
  call void @llvm.lifetime.start.p0(i64 4, ptr %10) #14
  %27 = load ptr, ptr %6, align 8, !tbaa !18
  %28 = call i32 @system(ptr noundef %27)
  store i32 %28, ptr %10, align 4, !tbaa !15
  %29 = load i32, ptr %10, align 4, !tbaa !15
  %30 = icmp ne i32 %29, 0
  br i1 %30, label %31, label %35

31:                                               ; preds = %24
  %32 = load ptr, ptr @stderr, align 8, !tbaa !31
  %33 = load i32, ptr %10, align 4, !tbaa !15
  %34 = call i32 (ptr, ptr, ...) @fprintf(ptr noundef %32, ptr noundef @.str.110, i32 noundef %33) #14
  store i32 1, ptr %10, align 4, !tbaa !15
  br label %35

35:                                               ; preds = %31, %24
  %36 = load ptr, ptr %6, align 8, !tbaa !18
  %37 = getelementptr inbounds [4096 x i8], ptr %7, i64 0, i64 0
  %38 = icmp ne ptr %36, %37
  br i1 %38, label %39, label %45

39:                                               ; preds = %35
  %40 = load ptr, ptr %6, align 8, !tbaa !18
  %41 = load ptr, ptr %4, align 8, !tbaa !18
  %42 = icmp ne ptr %40, %41
  br i1 %42, label %43, label %45

43:                                               ; preds = %39
  %44 = load ptr, ptr %6, align 8, !tbaa !18
  call void @uprv_free_77(ptr noundef %44)
  br label %45

45:                                               ; preds = %43, %39, %35
  %46 = load i32, ptr %10, align 4, !tbaa !15
  store i32 %46, ptr %3, align 4
  store i32 1, ptr %9, align 4
  call void @llvm.lifetime.end.p0(i64 4, ptr %10) #14
  br label %47

47:                                               ; preds = %45, %16
  call void @llvm.lifetime.end.p0(i64 4, ptr %8) #14
  call void @llvm.lifetime.end.p0(i64 4096, ptr %7) #14
  call void @llvm.lifetime.end.p0(i64 8, ptr %6) #14
  %48 = load i32, ptr %3, align 4
  ret i32 %48
}

; Function Attrs: mustprogress uwtable
define internal noundef i32 @_ZL18pkg_createSymLinksPKca(ptr noundef %0, i8 noundef signext %1) #1 {
  %3 = alloca i32, align 4
  %4 = alloca ptr, align 8
  %5 = alloca i8, align 1
  %6 = alloca i32, align 4
  %7 = alloca [16384 x i8], align 16
  %8 = alloca [4096 x i8], align 16
  %9 = alloca [4096 x i8], align 16
  %10 = alloca ptr, align 8
  %11 = alloca i32, align 4
  store ptr %0, ptr %4, align 8, !tbaa !18
  store i8 %1, ptr %5, align 1, !tbaa !27
  call void @llvm.lifetime.start.p0(i64 4, ptr %6) #14
  store i32 0, ptr %6, align 4, !tbaa !15
  call void @llvm.lifetime.start.p0(i64 16384, ptr %7) #14
  call void @llvm.lifetime.start.p0(i64 4096, ptr %8) #14
  call void @llvm.lifetime.start.p0(i64 4096, ptr %9) #14
  call void @llvm.lifetime.start.p0(i64 8, ptr %10) #14
  %12 = load ptr, ptr @_ZL12pkgDataFlags, align 8, !tbaa !24
  %13 = getelementptr inbounds nuw ptr, ptr %12, i64 1
  %14 = load ptr, ptr %13, align 8, !tbaa !18
  %15 = call i64 @strlen(ptr noundef %14) #17
  %16 = icmp eq i64 %15, 0
  %17 = select i1 %16, ptr @.str.11, ptr @.str.21
  store ptr %17, ptr %10, align 8, !tbaa !18
  %18 = call i64 @strlen(ptr noundef getelementptr inbounds nuw ([4 x [256 x i8]], ptr @_ZL12libFileNames, i64 0, i64 2)) #17
  %19 = icmp eq i64 %18, 0
  br i1 %19, label %26, label %20

20:                                               ; preds = %2
  %21 = call i64 @strlen(ptr noundef getelementptr inbounds nuw ([4 x [256 x i8]], ptr @_ZL12libFileNames, i64 0, i64 1)) #17
  %22 = icmp eq i64 %21, 0
  br i1 %22, label %26, label %23

23:                                               ; preds = %20
  %24 = call i32 @strcmp(ptr noundef getelementptr inbounds nuw ([4 x [256 x i8]], ptr @_ZL12libFileNames, i64 0, i64 2), ptr noundef getelementptr inbounds nuw ([4 x [256 x i8]], ptr @_ZL12libFileNames, i64 0, i64 1)) #17
  %25 = icmp eq i32 %24, 0
  br i1 %25, label %26, label %28

26:                                               ; preds = %23, %20, %2
  %27 = load i32, ptr %6, align 4, !tbaa !15
  store i32 %27, ptr %3, align 4
  store i32 1, ptr %11, align 4
  br label %65

28:                                               ; preds = %23
  %29 = getelementptr inbounds [16384 x i8], ptr %7, i64 0, i64 0
  %30 = load ptr, ptr %4, align 8, !tbaa !18
  %31 = call i32 (ptr, i64, ptr, ...) @snprintf(ptr noundef %29, i64 noundef 16384, ptr noundef @.str.146, ptr noundef %30, ptr noundef @.str.145, ptr noundef getelementptr inbounds nuw ([4 x [256 x i8]], ptr @_ZL12libFileNames, i64 0, i64 1), ptr noundef @.str.147, ptr noundef getelementptr inbounds nuw ([4 x [256 x i8]], ptr @_ZL12libFileNames, i64 0, i64 2), ptr noundef getelementptr inbounds nuw ([4 x [256 x i8]], ptr @_ZL12libFileNames, i64 0, i64 1)) #14
  %32 = getelementptr inbounds [16384 x i8], ptr %7, i64 0, i64 0
  %33 = call noundef i32 @_ZL10runCommandPKca(ptr noundef %32, i8 noundef signext 0)
  store i32 %33, ptr %6, align 4, !tbaa !15
  %34 = load i32, ptr %6, align 4, !tbaa !15
  %35 = icmp ne i32 %34, 0
  br i1 %35, label %36, label %41

36:                                               ; preds = %28
  %37 = load ptr, ptr @stderr, align 8, !tbaa !31
  %38 = getelementptr inbounds [16384 x i8], ptr %7, i64 0, i64 0
  %39 = call i32 (ptr, ptr, ...) @fprintf(ptr noundef %37, ptr noundef @.str.148, ptr noundef %38) #14
  %40 = load i32, ptr %6, align 4, !tbaa !15
  store i32 %40, ptr %3, align 4
  store i32 1, ptr %11, align 4
  br label %65

41:                                               ; preds = %28
  %42 = load i8, ptr %5, align 1, !tbaa !27
  %43 = icmp ne i8 %42, 0
  br i1 %43, label %44, label %45

44:                                               ; preds = %41
  br label %46

45:                                               ; preds = %41
  br label %46

46:                                               ; preds = %45, %44
  %47 = getelementptr inbounds [4096 x i8], ptr %8, i64 0, i64 0
  %48 = load ptr, ptr %10, align 8, !tbaa !18
  %49 = load ptr, ptr @_ZL12pkgDataFlags, align 8, !tbaa !24
  %50 = getelementptr inbounds nuw ptr, ptr %49, i64 1
  %51 = load ptr, ptr %50, align 8, !tbaa !18
  %52 = call i32 (ptr, i64, ptr, ...) @snprintf(ptr noundef %47, i64 noundef 4096, ptr noundef @.str.113, ptr noundef @_ZL12libFileNames, ptr noundef %48, ptr noundef %51) #14
  %53 = getelementptr inbounds [4096 x i8], ptr %9, i64 0, i64 0
  %54 = call i32 (ptr, i64, ptr, ...) @snprintf(ptr noundef %53, i64 noundef 4096, ptr noundef @.str.133, ptr noundef getelementptr inbounds nuw ([4 x [256 x i8]], ptr @_ZL12libFileNames, i64 0, i64 2)) #14
  br label %55

55:                                               ; preds = %46
  %56 = getelementptr inbounds [16384 x i8], ptr %7, i64 0, i64 0
  %57 = load ptr, ptr %4, align 8, !tbaa !18
  %58 = getelementptr inbounds [4096 x i8], ptr %8, i64 0, i64 0
  %59 = getelementptr inbounds [4096 x i8], ptr %9, i64 0, i64 0
  %60 = getelementptr inbounds [4096 x i8], ptr %8, i64 0, i64 0
  %61 = call i32 (ptr, i64, ptr, ...) @snprintf(ptr noundef %56, i64 noundef 16384, ptr noundef @.str.146, ptr noundef %57, ptr noundef @.str.145, ptr noundef %58, ptr noundef @.str.147, ptr noundef %59, ptr noundef %60) #14
  %62 = getelementptr inbounds [16384 x i8], ptr %7, i64 0, i64 0
  %63 = call noundef i32 @_ZL10runCommandPKca(ptr noundef %62, i8 noundef signext 0)
  store i32 %63, ptr %6, align 4, !tbaa !15
  %64 = load i32, ptr %6, align 4, !tbaa !15
  store i32 %64, ptr %3, align 4
  store i32 1, ptr %11, align 4
  br label %65

65:                                               ; preds = %55, %36, %26
  call void @llvm.lifetime.end.p0(i64 8, ptr %10) #14
  call void @llvm.lifetime.end.p0(i64 4096, ptr %9) #14
  call void @llvm.lifetime.end.p0(i64 4096, ptr %8) #14
  call void @llvm.lifetime.end.p0(i64 16384, ptr %7) #14
  call void @llvm.lifetime.end.p0(i64 4, ptr %6) #14
  %66 = load i32, ptr %3, align 4
  ret i32 %66
}