; Function Attrs: mustprogress nofree norecurse uwtable
define internal fastcc noundef range(i32 0, 2) i32 @_ZL18pkg_createSymLinksPKca(ptr noundef %0) unnamed_addr #16 {
  %2 = alloca [16384 x i8], align 16
  %3 = alloca [4096 x i8], align 16
  %4 = alloca [4096 x i8], align 16
  call void @llvm.lifetime.start.p0(i64 16384, ptr nonnull %2) #21
  call void @llvm.lifetime.start.p0(i64 4096, ptr nonnull %3) #21
  call void @llvm.lifetime.start.p0(i64 4096, ptr nonnull %4) #21
  %5 = load ptr, ptr @_ZL12pkgDataFlags, align 8, !tbaa !45
  %6 = getelementptr inbounds nuw i8, ptr %5, i64 8
  %7 = load ptr, ptr %6, align 8, !tbaa !16
  %char0 = load i8, ptr %7, align 1
  %8 = icmp eq i8 %char0, 0
  %9 = select i1 %8, ptr @.str.11, ptr @.str.21
  %char08 = load i8, ptr getelementptr inbounds nuw (i8, ptr @_ZL12libFileNames, i64 512), align 16
  %10 = icmp eq i8 %char08, 0
  %char09 = load i8, ptr getelementptr inbounds nuw (i8, ptr @_ZL12libFileNames, i64 256), align 16
  %11 = icmp eq i8 %char09, 0
  %or.cond = select i1 %10, i1 true, i1 %11
  br i1 %or.cond, label %_ZL10runCommandPKca.exit12, label %12

12:                                               ; preds = %1
  %13 = tail call i32 @strcmp(ptr noundef nonnull dereferenceable(1) getelementptr inbounds nuw (i8, ptr @_ZL12libFileNames, i64 512), ptr noundef nonnull dereferenceable(1) getelementptr inbounds nuw (i8, ptr @_ZL12libFileNames, i64 256)) #25
  %14 = icmp eq i32 %13, 0
  br i1 %14, label %_ZL10runCommandPKca.exit12, label %15

15:                                               ; preds = %12
  %16 = call i32 (ptr, i64, ptr, ...) @snprintf(ptr noundef nonnull dereferenceable(1) %2, i64 noundef 16384, ptr noundef nonnull @.str.146, ptr noundef %0, ptr noundef nonnull @.str.145, ptr noundef nonnull getelementptr inbounds nuw (i8, ptr @_ZL12libFileNames, i64 256), ptr noundef nonnull @.str.147, ptr noundef nonnull getelementptr inbounds nuw (i8, ptr @_ZL12libFileNames, i64 512), ptr noundef nonnull getelementptr inbounds nuw (i8, ptr @_ZL12libFileNames, i64 256)) #21
  %17 = call i64 @strlen(ptr noundef nonnull dereferenceable(1) %2) #25
  %18 = and i64 %17, 4294967295
  %19 = icmp eq i64 %18, 0
  br i1 %19, label %28, label %20

20:                                               ; preds = %15
  %21 = call i32 (ptr, ...) @printf(ptr noundef nonnull dereferenceable(1) @.str.109, ptr noundef nonnull %2)
  %22 = call i32 @system(ptr noundef nonnull %2)
  %.not.i = icmp eq i32 %22, 0
  br i1 %.not.i, label %28, label %23

23:                                               ; preds = %20
  %24 = load ptr, ptr @stderr, align 8, !tbaa !20
  %25 = call i32 (ptr, ptr, ...) @fprintf(ptr noundef %24, ptr noundef nonnull @.str.110, i32 noundef %22) #24
  %26 = load ptr, ptr @stderr, align 8, !tbaa !20
  %27 = call i32 (ptr, ptr, ...) @fprintf(ptr noundef %26, ptr noundef nonnull @.str.148, ptr noundef nonnull %2) #24
  br label %_ZL10runCommandPKca.exit12

28:                                               ; preds = %15, %20
  %29 = load ptr, ptr @_ZL12pkgDataFlags, align 8, !tbaa !45
  %30 = getelementptr inbounds nuw i8, ptr %29, i64 8
  %31 = load ptr, ptr %30, align 8, !tbaa !16
  %32 = call i32 (ptr, i64, ptr, ...) @snprintf(ptr noundef nonnull dereferenceable(1) %3, i64 noundef 4096, ptr noundef nonnull @.str.113, ptr noundef nonnull @_ZL12libFileNames, ptr noundef nonnull %9, ptr noundef %31) #21
  %33 = call i32 (ptr, i64, ptr, ...) @snprintf(ptr noundef nonnull dereferenceable(1) %4, i64 noundef 4096, ptr noundef nonnull @.str.133, ptr noundef nonnull getelementptr inbounds nuw (i8, ptr @_ZL12libFileNames, i64 512)) #21
  %34 = call i32 (ptr, i64, ptr, ...) @snprintf(ptr noundef nonnull dereferenceable(1) %2, i64 noundef 16384, ptr noundef nonnull @.str.146, ptr noundef %0, ptr noundef nonnull @.str.145, ptr noundef nonnull %3, ptr noundef nonnull @.str.147, ptr noundef nonnull %4, ptr noundef nonnull %3) #21
  %35 = call i64 @strlen(ptr noundef nonnull dereferenceable(1) %2) #25
  %36 = and i64 %35, 4294967295
  %37 = icmp eq i64 %36, 0
  br i1 %37, label %_ZL10runCommandPKca.exit12, label %38

38:                                               ; preds = %28
  %39 = call i32 (ptr, ...) @printf(ptr noundef nonnull dereferenceable(1) @.str.109, ptr noundef nonnull %2)
  %40 = call i32 @system(ptr noundef nonnull %2)
  %.not.i10 = icmp eq i32 %40, 0
  br i1 %.not.i10, label %_ZL10runCommandPKca.exit12, label %41

41:                                               ; preds = %38
  %42 = load ptr, ptr @stderr, align 8, !tbaa !20
  %43 = call i32 (ptr, ptr, ...) @fprintf(ptr noundef %42, ptr noundef nonnull @.str.110, i32 noundef %40) #24
  br label %_ZL10runCommandPKca.exit12

_ZL10runCommandPKca.exit12:                       ; preds = %41, %38, %28, %1, %12, %23
  %.0 = phi i32 [ 1, %23 ], [ 0, %12 ], [ 0, %1 ], [ 0, %28 ], [ 1, %41 ], [ 0, %38 ]
  call void @llvm.lifetime.end.p0(i64 4096, ptr nonnull %4) #21
  call void @llvm.lifetime.end.p0(i64 4096, ptr nonnull %3) #21
  call void @llvm.lifetime.end.p0(i64 16384, ptr nonnull %2) #21
  ret i32 %.0
}